; Function Attrs: nofree norecurse nosync nounwind memory(argmem: read) uwtable
define range(i32 -268435455, 268435456) i32 @sp_unsigned_bin_size(ptr noundef readonly captures(address_is_null) %0) local_unnamed_addr #9 {
  %.not = icmp eq ptr %0, null
  br i1 %.not, label %30, label %2

2:                                                ; preds = %1
  %3 = load i16, ptr %0, align 8, !tbaa !12
  %.not25.i = icmp eq i16 %3, 0
  br i1 %.not25.i, label %sp_count_bits.exit, label %4

4:                                                ; preds = %2
  %5 = getelementptr inbounds nuw i8, ptr %0, i64 8
  %6 = zext i16 %3 to i64
  br label %7

7:                                                ; preds = %9, %4
  %indvars.iv.i = phi i64 [ %indvars.iv.next.i, %9 ], [ %6, %4 ]
  %8 = icmp sgt i64 %indvars.iv.i, 0
  br i1 %8, label %9, label %sp_count_bits.exit

9:                                                ; preds = %7
  %indvars.iv.next.i = add nsw i64 %indvars.iv.i, -1
  %10 = getelementptr inbounds nuw [129 x i64], ptr %5, i64 0, i64 %indvars.iv.next.i
  %11 = load i64, ptr %10, align 8, !tbaa !8
  %12 = icmp eq i64 %11, 0
  br i1 %12, label %7, label %.critedge.i, !llvm.loop !22

.critedge.i:                                      ; preds = %9
  %13 = trunc nsw i64 %indvars.iv.next.i to i32
  %14 = and i64 %indvars.iv.next.i, 4294967295
  %15 = getelementptr inbounds nuw [129 x i64], ptr %5, i64 0, i64 %14
  %16 = load i64, ptr %15, align 8, !tbaa !8
  %17 = shl nuw nsw i32 %13, 6
  %18 = icmp ugt i64 %16, 4294967295
  br i1 %18, label %22, label %.preheader.i

.preheader.i:                                     ; preds = %.critedge.i
  %.not2631.i = icmp eq i64 %16, 0
  br i1 %.not2631.i, label %sp_count_bits.exit, label %.lr.ph.preheader.i

.lr.ph.preheader.i:                               ; preds = %.preheader.i
  %19 = tail call range(i64 32, 65) i64 @llvm.ctlz.i64(i64 %16, i1 true)
  %20 = trunc nuw nsw i64 %19 to i32
  %reass.sub.i = add nuw i32 %17, 64
  %21 = sub nuw i32 %reass.sub.i, %20
  br label %sp_count_bits.exit

22:                                               ; preds = %.critedge.i
  %23 = add nuw nsw i32 %17, 64
  %24 = icmp sgt i64 %16, -1
  br i1 %24, label %.lr.ph36.i, label %sp_count_bits.exit

.lr.ph36.i:                                       ; preds = %22, %.lr.ph36.i
  %.035.i = phi i64 [ %26, %.lr.ph36.i ], [ %16, %22 ]
  %.334.i = phi i32 [ %25, %.lr.ph36.i ], [ %23, %22 ]
  %25 = add nsw i32 %.334.i, -1
  %26 = shl nuw i64 %.035.i, 1
  %27 = icmp sgt i64 %26, -1
  br i1 %27, label %.lr.ph36.i, label %sp_count_bits.exit, !llvm.loop !23

sp_count_bits.exit:                               ; preds = %7, %.lr.ph36.i, %2, %.preheader.i, %.lr.ph.preheader.i, %22
  %.2.i = phi i32 [ 0, %2 ], [ %23, %22 ], [ %17, %.preheader.i ], [ %21, %.lr.ph.preheader.i ], [ %25, %.lr.ph36.i ], [ 0, %7 ]
  %28 = add nsw i32 %.2.i, 7
  %29 = sdiv i32 %28, 8
  br label %30

30:                                               ; preds = %sp_count_bits.exit, %1
  %.0 = phi i32 [ %29, %sp_count_bits.exit ], [ 0, %1 ]
  ret i32 %.0
}